target datalayout = "e-m:e-p270:32:32-p271:32:32-p272:64:64-i64:64-i128:128-f80:128-n8:16:32:64-S128"
target triple = "x86_64-unknown-linux-gnu"

%"struct.std::_Vector_base" = type { %"struct.std::_Vector_base<const Assimp::FBX::Token *, std::allocator<const Assimp::FBX::Token *>>::_Vector_impl" }
%"struct.std::_Vector_base<const Assimp::FBX::Token *, std::allocator<const Assimp::FBX::Token *>>::_Vector_impl" = type { %"struct.std::_Vector_base<const Assimp::FBX::Token *, std::allocator<const Assimp::FBX::Token *>>::_Vector_impl_data" }
%"struct.std::_Vector_base<const Assimp::FBX::Token *, std::allocator<const Assimp::FBX::Token *>>::_Vector_impl_data" = type { ptr, ptr, ptr }
%"class.Assimp::FBX::Parser" = type <{ ptr, ptr, ptr, ptr, %"class.__gnu_cxx::__normal_iterator", ptr, i8, [7 x i8] }>
%"class.__gnu_cxx::__normal_iterator" = type { ptr }

@.str.8 = private unnamed_addr constant [19 x i8] c"Parsing FBX tokens\00", align 1
@_ZN6Assimp3FBX5ScopeC1ERNS0_6ParserEb = hidden unnamed_addr alias void (ptr, ptr, i1), ptr @_ZN6Assimp3FBX5ScopeC2ERNS0_6ParserEb

; Function Attrs: mustprogress nounwind uwtable
define linkonce_odr hidden void @_ZN9__gnu_cxx17__normal_iteratorIPKPKN6Assimp3FBX5TokenESt6vectorIS5_SaIS5_EEEC2ERKS7_(ptr noundef nonnull align 8 dereferenceable(8) %this, ptr noundef nonnull align 8 dereferenceable(8) %__i) unnamed_addr #0 comdat align 2 {
entry:
  %this.addr = alloca ptr, align 8
  %__i.addr = alloca ptr, align 8
  store ptr %this, ptr %this.addr, align 8
  store ptr %__i, ptr %__i.addr, align 8
  %this1 = load ptr, ptr %this.addr, align 8
  %_M_current = getelementptr inbounds %"class.__gnu_cxx::__normal_iterator", ptr %this1, i32 0, i32 0
  %0 = load ptr, ptr %__i.addr, align 8
  %1 = load ptr, ptr %0, align 8
  store ptr %1, ptr %_M_current, align 8
  ret void
}

; Function Attrs: mustprogress nounwind uwtable
define linkonce_odr hidden ptr @_ZNKSt6vectorIPKN6Assimp3FBX5TokenESaIS4_EE5beginEv(ptr noundef nonnull align 8 dereferenceable(24) %this) #0 comdat align 2 {
entry:
  %retval = alloca %"class.__gnu_cxx::__normal_iterator", align 8
  %this.addr = alloca ptr, align 8
  store ptr %this, ptr %this.addr, align 8
  %this1 = load ptr, ptr %this.addr, align 8
  %_M_impl = getelementptr inbounds %"struct.std::_Vector_base", ptr %this1, i32 0, i32 0
  %_M_start = getelementptr inbounds %"struct.std::_Vector_base<const Assimp::FBX::Token *, std::allocator<const Assimp::FBX::Token *>>::_Vector_impl_data", ptr %_M_impl, i32 0, i32 0
  call void @_ZN9__gnu_cxx17__normal_iteratorIPKPKN6Assimp3FBX5TokenESt6vectorIS5_SaIS5_EEEC2ERKS7_(ptr noundef nonnull align 8 dereferenceable(8) %retval, ptr noundef nonnull align 8 dereferenceable(8) %_M_start) #5
  %coerce.dive = getelementptr inbounds %"class.__gnu_cxx::__normal_iterator", ptr %retval, i32 0, i32 0
  %0 = load ptr, ptr %coerce.dive, align 8
  ret ptr %0
}

; Function Attrs: mustprogress uwtable
define hidden void @_ZN6Assimp3FBX6ParserC2ERKSt6vectorIPKNS0_5TokenESaIS5_EERNS_14StackAllocatorEb(ptr noundef nonnull align 8 dereferenceable(49) %this, ptr noundef nonnull align 8 dereferenceable(24) %tokens, ptr noundef nonnull align 8 dereferenceable(40) %allocator, i1 noundef zeroext %is_binary) unnamed_addr #6 align 2 {
entry:
  %this.addr = alloca ptr, align 8
  %tokens.addr = alloca ptr, align 8
  %allocator.addr = alloca ptr, align 8
  %is_binary.addr = alloca i8, align 1
  store ptr %this, ptr %this.addr, align 8
  store ptr %tokens, ptr %tokens.addr, align 8
  store ptr %allocator, ptr %allocator.addr, align 8
  %frombool = zext i1 %is_binary to i8
  store i8 %frombool, ptr %is_binary.addr, align 1
  %this1 = load ptr, ptr %this.addr, align 8
  %tokens2 = getelementptr inbounds %"class.Assimp::FBX::Parser", ptr %this1, i32 0, i32 0
  %0 = load ptr, ptr %tokens.addr, align 8
  store ptr %0, ptr %tokens2, align 8
  %allocator3 = getelementptr inbounds %"class.Assimp::FBX::Parser", ptr %this1, i32 0, i32 1
  %1 = load ptr, ptr %allocator.addr, align 8
  store ptr %1, ptr %allocator3, align 8
  %last = getelementptr inbounds %"class.Assimp::FBX::Parser", ptr %this1, i32 0, i32 2
  store ptr null, ptr %last, align 8
  %current = getelementptr inbounds %"class.Assimp::FBX::Parser", ptr %this1, i32 0, i32 3
  store ptr null, ptr %current, align 8
  %cursor = getelementptr inbounds %"class.Assimp::FBX::Parser", ptr %this1, i32 0, i32 4
  %2 = load ptr, ptr %tokens.addr, align 8
  %call = call ptr @_ZNKSt6vectorIPKN6Assimp3FBX5TokenESaIS4_EE5beginEv(ptr noundef nonnull align 8 dereferenceable(24) %2) #5
  %coerce.dive = getelementptr inbounds %"class.__gnu_cxx::__normal_iterator", ptr %cursor, i32 0, i32 0
  store ptr %call, ptr %coerce.dive, align 8
  %is_binary4 = getelementptr inbounds %"class.Assimp::FBX::Parser", ptr %this1, i32 0, i32 6
  %3 = load i8, ptr %is_binary.addr, align 1
  %tobool = trunc i8 %3 to i1
  %frombool5 = zext i1 %tobool to i8
  store i8 %frombool5, ptr %is_binary4, align 8
  %call6 = call noundef ptr @_ZN6Assimp13DefaultLogger3getEv()
  call void @_ZN6Assimp6Logger5debugEPKc(ptr noundef nonnull align 8 dereferenceable(12) %call6, ptr noundef @.str.8)
  %4 = load ptr, ptr %allocator.addr, align 8
  %call7 = call noundef ptr @_ZN6Assimp14StackAllocator8AllocateEm(ptr noundef nonnull align 8 dereferenceable(40) %4, i64 noundef 48)
  call void @_ZN6Assimp3FBX5ScopeC1ERNS0_6ParserEb(ptr noundef nonnull align 8 dereferenceable(48) %call7, ptr noundef nonnull align 8 dereferenceable(49) %this1, i1 noundef zeroext true)
  %root = getelementptr inbounds %"class.Assimp::FBX::Parser", ptr %this1, i32 0, i32 5
  store ptr %call7, ptr %root, align 8
  ret void
}