; Function Attrs: mustprogress uwtable
define hidden void @_ZN6Assimp3FBX6ParserC2ERKSt6vectorIPKNS0_5TokenESaIS5_EERNS_14StackAllocatorEb(ptr nocapture noundef nonnull align 8 dereferenceable(49) %this, ptr noundef nonnull align 8 dereferenceable(24) %tokens, ptr noundef nonnull align 8 dereferenceable(40) %allocator, i1 noundef zeroext %is_binary) unnamed_addr #3 align 2 {
entry:
  %frombool = zext i1 %is_binary to i8
  store ptr %tokens, ptr %this, align 8
  %allocator3 = getelementptr inbounds i8, ptr %this, i64 8
  store ptr %allocator, ptr %allocator3, align 8
  %last = getelementptr inbounds i8, ptr %this, i64 16
  %cursor = getelementptr inbounds i8, ptr %this, i64 32
  tail call void @llvm.memset.p0.i64(ptr noundef nonnull align 8 dereferenceable(16) %last, i8 0, i64 16, i1 false)
  %0 = load ptr, ptr %tokens, align 8
  store ptr %0, ptr %cursor, align 8
  %is_binary4 = getelementptr inbounds i8, ptr %this, i64 48
  store i8 %frombool, ptr %is_binary4, align 8
  %call6 = tail call noundef ptr @_ZN6Assimp13DefaultLogger3getEv()
  tail call void @_ZN6Assimp6Logger5debugEPKc(ptr noundef nonnull align 8 dereferenceable(12) %call6, ptr noundef nonnull @.str.8)
  %call7 = tail call noundef ptr @_ZN6Assimp14StackAllocator8AllocateEm(ptr noundef nonnull align 8 dereferenceable(40) %allocator, i64 noundef 48)
  tail call void @_ZN6Assimp3FBX5ScopeC2ERNS0_6ParserEb(ptr noundef nonnull align 8 dereferenceable(48) %call7, ptr noundef nonnull align 8 dereferenceable(49) %this, i1 noundef zeroext true)
  %root = getelementptr inbounds i8, ptr %this, i64 40
  store ptr %call7, ptr %root, align 8
  ret void
}